(dp0
S'state'
p1
cnumpy.core.multiarray
_reconstruct
p2
(cnumpy
ndarray
p3
(I0
tp4
S'b'
p5
tp6
Rp7
(I1
(I1
I6
I1
I1
tp8
cnumpy
dtype
p9
(S'f8'
p10
I0
I1
tp11
Rp12
(I3
S'<'
p13
NNNI-1
I-1
I0
tp14
bI00
S'\xacB5<\xb9\xda\xd4?\xcc\xf4\xd9\xac\xe4@\xee?>\x98\xb7<\xd2v\xe2\xbf[He\xe2\xbd"\xea?\x88Du\x97Q\xc5\x07@\x19\xff;\x12$w\x00\xc0'
p15
tp16
bsS'training_steps'
p17
I3086
sS'eval_mode'
p18
I01
sS'current_iteration'
p19
I2
sS'logs'
p20
(dp21
S'iteration_2'
p22
(dp23
S'train_average_return'
p24
(lp25
F-116.77777777777777
asS'eval_episode_returns'
p26
(lp27
F-99.0
aF-81.0
aF-81.0
aF-63.0
aF-72.0
aF-116.0
aF-235.0
aF-113.0
aF-96.0
aF-77.0
asS'eval_episode_lengths'
p28
(lp29
I100
aI82
aI82
aI64
aI73
aI117
aI236
aI114
aI97
aI78
asS'eval_average_return'
p30
(lp31
F-103.3
asS'train_episode_lengths'
p32
(lp33
I138
aI136
aI107
aI141
aI135
aI118
aI96
aI123
aI66
asS'train_episode_returns'
p34
(lp35
F-137.0
aF-135.0
aF-106.0
aF-140.0
aF-134.0
aF-117.0
aF-95.0
aF-122.0
aF-65.0
assS'iteration_1'
p36
(dp37
g24
(lp38
F-170.0
asS'eval_episode_returns'
p39
(lp40
F-500.0
aF-500.0
asS'eval_episode_lengths'
p41
(lp42
I500
aI500
asg30
(lp43
F-500.0
asS'train_episode_lengths'
p44
(lp45
I261
aI95
aI150
aI102
aI197
aI221
asS'train_episode_returns'
p46
(lp47
F-260.0
aF-94.0
aF-149.0
aF-101.0
aF-196.0
aF-220.0
assS'iteration_0'
p48
(dp49
g24
(lp50
F-500.0
asS'eval_episode_returns'
p51
(lp52
F-500.0
aF-500.0
asS'eval_episode_lengths'
p53
(lp54
I500
aI500
asg30
(lp55
F-500.0
asS'train_episode_lengths'
p56
(lp57
I500
aI500
asS'train_episode_returns'
p58
(lp59
F-500.0
aF-500.0
asss.