(dp0
S'state'
p1
cnumpy.core.multiarray
_reconstruct
p2
(cnumpy
ndarray
p3
(I0
tp4
S'b'
p5
tp6
Rp7
(I1
(I1
I6
I1
I1
tp8
cnumpy
dtype
p9
(S'f8'
p10
I0
I1
tp11
Rp12
(I3
S'<'
p13
NNNI-1
I-1
I0
tp14
bI00
S'F0E\xd4#\xfe\xef?\xa1\xdf\x83\x11\xf2\xd1\x95\xbfe=\xd1\xb8\x92\xfb\xef?\x8c\xb5\tRo\xd4\xa0\xbf\x18\\c@\rf\x9c\xbf\x83^\r1\xfcb\xba\xbf'
p15
tp16
bsS'training_steps'
p17
I5204
sS'eval_mode'
p18
I01
sS'current_iteration'
p19
I4
sS'logs'
p20
(dp21
S'iteration_3'
p22
(dp23
S'train_average_return'
p24
(lp25
F-109.6
asS'eval_episode_returns'
p26
(lp27
F-432.0
aF-500.0
aF-500.0
asS'eval_episode_lengths'
p28
(lp29
I433
aI500
aI500
asS'eval_average_return'
p30
(lp31
F-477.3333333333333
asS'train_episode_lengths'
p32
(lp33
I90
aI119
aI90
aI126
aI121
aI95
aI110
aI98
aI125
aI132
asS'train_episode_returns'
p34
(lp35
F-89.0
aF-118.0
aF-89.0
aF-125.0
aF-120.0
aF-94.0
aF-109.0
aF-97.0
aF-124.0
aF-131.0
assS'iteration_2'
p36
(dp37
g24
(lp38
F-116.77777777777777
asS'eval_episode_returns'
p39
(lp40
F-99.0
aF-81.0
aF-81.0
aF-63.0
aF-72.0
aF-116.0
aF-235.0
aF-113.0
aF-96.0
aF-77.0
asS'eval_episode_lengths'
p41
(lp42
I100
aI82
aI82
aI64
aI73
aI117
aI236
aI114
aI97
aI78
asg30
(lp43
F-103.3
asS'train_episode_lengths'
p44
(lp45
I138
aI136
aI107
aI141
aI135
aI118
aI96
aI123
aI66
asS'train_episode_returns'
p46
(lp47
F-137.0
aF-135.0
aF-106.0
aF-140.0
aF-134.0
aF-117.0
aF-95.0
aF-122.0
aF-65.0
assS'iteration_1'
p48
(dp49
g24
(lp50
F-170.0
asS'eval_episode_returns'
p51
(lp52
F-500.0
aF-500.0
asS'eval_episode_lengths'
p53
(lp54
I500
aI500
asg30
(lp55
F-500.0
asS'train_episode_lengths'
p56
(lp57
I261
aI95
aI150
aI102
aI197
aI221
asS'train_episode_returns'
p58
(lp59
F-260.0
aF-94.0
aF-149.0
aF-101.0
aF-196.0
aF-220.0
assS'iteration_0'
p60
(dp61
g24
(lp62
F-500.0
asS'eval_episode_returns'
p63
(lp64
F-500.0
aF-500.0
asS'eval_episode_lengths'
p65
(lp66
I500
aI500
asg30
(lp67
F-500.0
asS'train_episode_lengths'
p68
(lp69
I500
aI500
asS'train_episode_returns'
p70
(lp71
F-500.0
aF-500.0
assS'iteration_4'
p72
(dp73
g24
(lp74
F-143.57142857142858
asS'eval_episode_returns'
p75
(lp76
F-103.0
aF-500.0
aF-163.0
aF-500.0
asS'eval_episode_lengths'
p77
(lp78
I104
aI500
aI164
aI500
asg30
(lp79
F-316.5
asS'train_episode_lengths'
p80
(lp81
I129
aI146
aI93
aI118
aI99
aI247
aI180
asS'train_episode_returns'
p82
(lp83
F-128.0
aF-145.0
aF-92.0
aF-117.0
aF-98.0
aF-246.0
aF-179.0
asss.