(dp0
S'state'
p1
cnumpy.core.multiarray
_reconstruct
p2
(cnumpy
ndarray
p3
(I0
tp4
S'b'
p5
tp6
Rp7
(I1
(I1
I6
I1
I1
tp8
cnumpy
dtype
p9
(S'f8'
p10
I0
I1
tp11
Rp12
(I3
S'<'
p13
NNNI-1
I-1
I0
tp14
bI00
S'\n\xedTQ\xf8\xf7\xef?l\xc7\xb2\xf6\x0c\xaa\xa6?\xcb_\x15\xd4_\xfb\xef?\xd4\x18\xf9w\x164\xa1\xbf }[\x915\x1a\x9c?,\xcfi\x1e\x7f\xd1\x9a?'
p15
tp16
bsS'training_steps'
p17
I2026
sS'eval_mode'
p18
I01
sS'current_iteration'
p19
I1
sS'logs'
p20
(dp21
S'iteration_1'
p22
(dp23
S'train_average_return'
p24
(lp25
F-170.0
asS'eval_episode_returns'
p26
(lp27
F-500.0
aF-500.0
asS'eval_episode_lengths'
p28
(lp29
I500
aI500
asS'eval_average_return'
p30
(lp31
F-500.0
asS'train_episode_lengths'
p32
(lp33
I261
aI95
aI150
aI102
aI197
aI221
asS'train_episode_returns'
p34
(lp35
F-260.0
aF-94.0
aF-149.0
aF-101.0
aF-196.0
aF-220.0
assS'iteration_0'
p36
(dp37
g24
(lp38
F-500.0
asS'eval_episode_returns'
p39
(lp40
F-500.0
aF-500.0
asS'eval_episode_lengths'
p41
(lp42
I500
aI500
asg30
(lp43
F-500.0
asS'train_episode_lengths'
p44
(lp45
I500
aI500
asS'train_episode_returns'
p46
(lp47
F-500.0
aF-500.0
asss.